; Function Attrs: alwaysinline norecurse nounwind uwtable
define internal void @_ZNK4ncnn14Interp_x86_fma7forwardERKSt6vectorINS_3MatESaIS2_EERS4_RKNS_6OptionE.omp_outlined.2(ptr noalias noundef readonly captures(none) %0, ptr noalias readnone captures(none) %1, ptr noundef nonnull readonly align 4 captures(none) dereferenceable(4) %2, ptr noundef nonnull readonly align 8 captures(none) dereferenceable(72) %3, ptr noundef nonnull readonly align 8 captures(none) dereferenceable(72) %4) #10 personality ptr @__gxx_personality_v0 {
  %6 = alloca i32, align 4
  %7 = alloca i32, align 4
  %8 = alloca i32, align 4
  %9 = alloca i32, align 4
  %10 = load i32, ptr %2, align 4, !tbaa !16
  %11 = icmp sgt i32 %10, 0
  br i1 %11, label %12, label %51

12:                                               ; preds = %5
  %13 = add nsw i32 %10, -1
  call void @llvm.lifetime.start.p0(i64 4, ptr nonnull %6) #6
  store i32 0, ptr %6, align 4, !tbaa !16
  call void @llvm.lifetime.start.p0(i64 4, ptr nonnull %7) #6
  store i32 %13, ptr %7, align 4, !tbaa !16
  call void @llvm.lifetime.start.p0(i64 4, ptr nonnull %8) #6
  store i32 1, ptr %8, align 4, !tbaa !16
  call void @llvm.lifetime.start.p0(i64 4, ptr nonnull %9) #6
  store i32 0, ptr %9, align 4, !tbaa !16
  %14 = load i32, ptr %0, align 4, !tbaa !16
  call void @__kmpc_for_static_init_4(ptr nonnull @1, i32 %14, i32 34, ptr nonnull %9, ptr nonnull %6, ptr nonnull %7, ptr nonnull %8, i32 1, i32 1)
  %15 = load i32, ptr %7, align 4, !tbaa !16
  %16 = call i32 @llvm.smin.i32(i32 %15, i32 %13)
  store i32 %16, ptr %7, align 4, !tbaa !16
  %17 = load i32, ptr %6, align 4, !tbaa !16
  %.not26 = icmp sgt i32 %17, %16
  br i1 %.not26, label %._crit_edge, label %.noexc.lr.ph

.noexc.lr.ph:                                     ; preds = %12
  %18 = getelementptr inbounds nuw i8, ptr %3, i64 44
  %19 = load i32, ptr %18, align 4, !tbaa !17, !noalias !69
  %20 = getelementptr inbounds nuw i8, ptr %3, i64 48
  %21 = load i32, ptr %20, align 8, !tbaa !10, !noalias !69
  %22 = getelementptr inbounds nuw i8, ptr %3, i64 52
  %23 = load i32, ptr %22, align 4, !tbaa !32, !noalias !69
  %24 = load ptr, ptr %3, align 8, !tbaa !25, !noalias !69
  %25 = getelementptr inbounds nuw i8, ptr %3, i64 64
  %26 = load i64, ptr %25, align 8, !tbaa !26, !noalias !69
  %27 = getelementptr inbounds nuw i8, ptr %3, i64 16
  %28 = load i64, ptr %27, align 8, !tbaa !20, !noalias !69
  %factor.op.mul = mul i64 %26, %28
  %29 = sext i32 %19 to i64
  %30 = sext i32 %21 to i64
  %31 = mul nsw i64 %30, %29
  %32 = mul i64 %28, %31
  %33 = add i64 %32, 15
  %34 = and i64 %33, -16
  %35 = udiv i64 %34, %28
  %36 = getelementptr inbounds nuw i8, ptr %3, i64 40
  %37 = load i32, ptr %36, align 8, !tbaa !19, !noalias !69
  %38 = icmp eq i32 %37, 4
  %spec.select = select i1 %38, i64 %31, i64 %35
  %39 = load ptr, ptr %4, align 8, !tbaa !25
  %40 = trunc i64 %spec.select to i32
  %41 = mul i32 %23, %40
  %42 = icmp sgt i32 %41, 0
  br i1 %42, label %.noexc.us.preheader, label %._crit_edge

.noexc.us.preheader:                              ; preds = %.noexc.lr.ph
  %43 = sext i32 %17 to i64
  %44 = add nsw i32 %16, 1
  br label %.noexc.us

.noexc.us:                                        ; preds = %.noexc.us.preheader, %._ZN4ncnn3MatD2Ev.exit_crit_edge.us
  %indvars.iv = phi i64 [ %43, %.noexc.us.preheader ], [ %indvars.iv.next, %._ZN4ncnn3MatD2Ev.exit_crit_edge.us ]
  %.reass.us = mul i64 %factor.op.mul, %indvars.iv
  %45 = getelementptr inbounds nuw i8, ptr %24, i64 %.reass.us
  %46 = getelementptr inbounds nuw float, ptr %39, i64 %indvars.iv
  %47 = load float, ptr %46, align 4, !tbaa !49
  br label %48

48:                                               ; preds = %.noexc.us, %48
  %.0.i25.us = phi i32 [ 0, %.noexc.us ], [ %50, %48 ]
  %.05.i24.us = phi ptr [ %45, %.noexc.us ], [ %49, %48 ]
  %49 = getelementptr inbounds nuw i8, ptr %.05.i24.us, i64 4
  store float %47, ptr %.05.i24.us, align 4, !tbaa !49
  %50 = add nuw nsw i32 %.0.i25.us, 1
  %exitcond.not = icmp eq i32 %50, %41
  br i1 %exitcond.not, label %._ZN4ncnn3MatD2Ev.exit_crit_edge.us, label %48, !llvm.loop !72

._ZN4ncnn3MatD2Ev.exit_crit_edge.us:              ; preds = %48
  %indvars.iv.next = add nsw i64 %indvars.iv, 1
  %lftr.wideiv = trunc i64 %indvars.iv.next to i32
  %exitcond30.not = icmp eq i32 %44, %lftr.wideiv
  br i1 %exitcond30.not, label %._crit_edge, label %.noexc.us

._crit_edge:                                      ; preds = %._ZN4ncnn3MatD2Ev.exit_crit_edge.us, %.noexc.lr.ph, %12
  call void @__kmpc_for_static_fini(ptr nonnull @1, i32 %14)
  call void @llvm.lifetime.end.p0(i64 4, ptr nonnull %9) #6
  call void @llvm.lifetime.end.p0(i64 4, ptr nonnull %8) #6
  call void @llvm.lifetime.end.p0(i64 4, ptr nonnull %7) #6
  call void @llvm.lifetime.end.p0(i64 4, ptr nonnull %6) #6
  br label %51

51:                                               ; preds = %._crit_edge, %5
  ret void
}